; Function Attrs: mustprogress nofree norecurse nosync nounwind willreturn memory(argmem: read) uwtable
define { double, double } @_ZN32pxrInternal_v0_24__pxrReserved__25CameraUtilConformedWindowERKNS_7GfVec2dENS_29CameraUtilConformWindowPolicyEd(ptr nocapture noundef nonnull readonly align 8 dereferenceable(16) %0, i32 noundef %1, double noundef %2) local_unnamed_addr #1 {
  %4 = icmp eq i32 %1, 4
  %.sroa.0.0.copyload = load double, ptr %0, align 8
  %.sroa.4.0..sroa_idx = getelementptr inbounds i8, ptr %0, i64 8
  %.sroa.4.0.copyload = load double, ptr %.sroa.4.0..sroa_idx, align 8
  br i1 %4, label %16, label %5

5:                                                ; preds = %3
  %or.cond.i = icmp ult i32 %1, 2
  br i1 %or.cond.i, label %_ZN32pxrInternal_v0_24__pxrReserved__L27_ResolveConformWindowPolicyERKNS_7GfVec2dENS_29CameraUtilConformWindowPolicyEd.exit, label %6

6:                                                ; preds = %5
  %7 = fcmp une double %.sroa.4.0.copyload, 0.000000e+00
  %8 = fdiv double %.sroa.0.0.copyload, %.sroa.4.0.copyload
  %.0.i.i = select i1 %7, double %8, double 1.000000e+00
  %9 = icmp eq i32 %1, 2
  %10 = fcmp ule double %.0.i.i, %2
  %not..i = xor i1 %9, %10
  %..i = zext i1 %not..i to i32
  br label %_ZN32pxrInternal_v0_24__pxrReserved__L27_ResolveConformWindowPolicyERKNS_7GfVec2dENS_29CameraUtilConformWindowPolicyEd.exit

_ZN32pxrInternal_v0_24__pxrReserved__L27_ResolveConformWindowPolicyERKNS_7GfVec2dENS_29CameraUtilConformWindowPolicyEd.exit: ; preds = %5, %6
  %.0.i = phi i32 [ %1, %5 ], [ %..i, %6 ]
  %.not = icmp eq i32 %.0.i, 0
  br i1 %.not, label %14, label %11

11:                                               ; preds = %_ZN32pxrInternal_v0_24__pxrReserved__L27_ResolveConformWindowPolicyERKNS_7GfVec2dENS_29CameraUtilConformWindowPolicyEd.exit
  %12 = fcmp une double %2, 0.000000e+00
  %13 = fdiv double %.sroa.0.0.copyload, %2
  %.0.i12 = select i1 %12, double %13, double %.sroa.0.0.copyload
  br label %16

14:                                               ; preds = %_ZN32pxrInternal_v0_24__pxrReserved__L27_ResolveConformWindowPolicyERKNS_7GfVec2dENS_29CameraUtilConformWindowPolicyEd.exit
  %15 = fmul double %2, %.sroa.4.0.copyload
  br label %16

16:                                               ; preds = %3, %14, %11
  %.sroa.4.0 = phi double [ %.0.i12, %11 ], [ %.sroa.4.0.copyload, %14 ], [ %.sroa.4.0.copyload, %3 ]
  %.sroa.0.0 = phi double [ %.sroa.0.0.copyload, %11 ], [ %15, %14 ], [ %.sroa.0.0.copyload, %3 ]
  %.fca.0.insert = insertvalue { double, double } poison, double %.sroa.0.0, 0
  %.fca.1.insert = insertvalue { double, double } %.fca.0.insert, double %.sroa.4.0, 1
  ret { double, double } %.fca.1.insert
}